#include <math.h>
#include <stdio.h>
#include <stdlib.h>
#include <string.h>
#include <iostream>
using namespace std;

//********************************
//*?????????   **
//*?????? 1300012861 **
//*???2013.10.17  **
//********************************
int main()
{
	int n, x, y, i, r, j, s; 
	cin >> n; 
	for (x = 3; x <= n / 2; x += 2) //??? ???3?? ??+2
	{
		y = n - x; 
		r = sqrt (x);
		s = sqrt (y);
		for (i = 2; i <= r; i++) //??x?????
		{
			if (x % i == 0) //????????
			{
				break; 
			}
		}
		for (j = 2; j <= s; j++) //??y?????
		{
			if (y % j == 0)
			{
				break; 
			}
		}
		if ((i == r + 1) && (j == s + 1)) //?x?y??????????? ?????
			cout << x << ' ' << y << endl; 
	}
	return 0;
}

